Open Watcom Linker Version 1.9
Portions Copyright (c) 1985-2002 Sybase, Inc. All Rights Reserved.
Created on:       19/09/03 03:12:09
Executable Image: \IVOYAGER.exe
creating a Windows 16-bit executable


                        +------------+
                        |   Groups   |
                        +------------+

Group                           Address              Size
=====                           =======              ====

DGROUP                          0002:0000            00003090



                        +--------------+
                        |   Segments   |
                        +--------------+

Segment                Class          Group          Address         Size
=======                =====          =====          =======         ====

dom_TEXT               CODE           AUTO           0001:0000       00004ada
main_TEXT              CODE           AUTO           0001:4ada       0000724e
task_TEXT              CODE           AUTO           0001:bd28       00001306
_TEXT                  CODE           AUTO           0001:d030       00002719
FAR_DATA               FAR_DATA       AUTO           0002:0000       00000000
_NULL                  BEGDATA        DGROUP         0002:0000       00000010
AFX_NULL               BEGDATA        DGROUP         0002:0010       00000000
CONST                  DATA           DGROUP         0002:0010       000006fe
CONST2                 DATA           DGROUP         0002:070e       00000102
_DATA                  DATA           DGROUP         0002:0810       0000032c
XIB                    DATA           DGROUP         0002:0b3c       00000000
XI                     DATA           DGROUP         0002:0b3c       0000000c
XIE                    DATA           DGROUP         0002:0b48       00000000
YIB                    DATA           DGROUP         0002:0b48       00000000
YI                     DATA           DGROUP         0002:0b48       0000000c
YIE                    DATA           DGROUP         0002:0b54       00000000
STRINGS                DATA           DGROUP         0002:0b54       00000000
DATA                   DATA           DGROUP         0002:0b54       00000000
BCSD                   DATA           DGROUP         0002:0b54       00000000
_BSS                   BSS            DGROUP         0002:0b54       0000052e
STACK                  STACK          DGROUP         0002:1090       00002000


                        +----------------+
                        |   Memory Map   |
                        +----------------+

* = unreferenced symbol
+ = symbol only referenced locally

Address        Symbol
=======        ======

Module: \dom.obj(D:\dom.c)
0001:0420+     CompileJSChunk_
0001:0484+     CSSEnd_
0001:054f+     StripCSSComment_
0001:074c+     CSSOpenBracket_
0001:07ce+     CSSCloseBracket_
0001:08bc+     SelectorParsed_
0001:0a59+     CSSValueParsed_
0001:0b83+     BlockTypeParsed_
0001:0ccc+     BlockParamsParsed_
0001:0e32+     CSSPropertyParsed_
0001:0fb5+     ParseCSSChunk_
0001:2f74+     TagParsed_
0001:3101+     AttribNameParsed_
0001:3205+     AttribValueParsed_
0001:3354+     TextParsed_
0001:33f2+     TagDone_
0001:3766      ParseDOMChunk_
0002:0810+     _inBlock
0002:0812+     _inSelector
0002:0814+     _bLastSelector
0002:0816+     _bLastBlockParams
0002:0818+     _bLastProperty
Module: \main.obj(D:\main.c)
0002:0b60+     _g_innerShell
0002:0830+     _lpszStatus
0002:0834+     _hStatusBar
0001:5e4e+     readStream_FILE_
0001:5ed2+     EOFstream_FILE_
0001:5f6e+     hasDataStream_FILE_
0001:5fb9+     closeStream_FILE_
0001:6004+     readStream_HTTP_
0001:60ac+     hasDataStream_HTTP_
0001:60f4+     EOFstream_HTTP_
0001:6164+     closeStream_HTTP_
0001:6192+     redirectStream_
0001:63b6+     openStream_
0001:672d+     closeStream_
0001:675b+     GetAvailableWebRequestTask_
0001:6791+     FindAvailableWebRequest_
0001:67fb+     FreeWebRequest_
0001:6881+     ParseHttpHeader_
0001:694b+     HttpGetChunk_
0001:7274+     HttpGet_
0001:7370+     HttpPost_
0001:73a2+     RunOpenUrlTask_
0001:7bc6+     RunTask_
0001:7c38+     OpenUrl_
0001:8374+     RefreshShell_
0001:83df+     AllocTab_
0001:84c1+     FreeTab_
0001:8535+     SetTabTitle_
0001:85dd+     SetTabStatus_
0001:8681+     SetTabURL_
0001:8725+     GetNumTabs_
0001:8760+     TabFromIdx_
0001:87b5+     TabFromId_
0001:8817      ResetDebugLogAttr_
0001:8853      DebugLogAttr_
0001:887d+     WriteSource_
0001:890c      DebugLog_
0001:8a2c+     SetStatusText_
0001:8b02+     CreateTabChildWindows_
0001:8c4d+     SetActiveTab_
0001:8e2f+     GetTabColor_
0001:8ed2+     GetTabShineColor_
0001:91f5+     GetWinColor_
0001:9223+     ADDRESSBARPROC
0001:9449+     BROWSERSHELLTOGGLEBAR
0001:9c99+     drawTab_
0001:a292+     OverTab_
0001:a304+     OverTabX_
0001:a37a+     drawTabs_
0001:a759+     BROWSERINNERSHELLPROC
0001:b1ed+     SetSocketBufferSize_
0001:b21c+     BROWSERSHELLPROC
0001:b8e2+     BROWSERPROC
0001:b92e+     WinsockStart_
0001:b972      WINMAIN
0002:0b68+     _browserWin
Module: \task.obj(D:\task.c)
0001:be57+     RemoveTask_
0001:bf3a      AllocTempTask_
0001:bf90      FreeTempTask_
0001:bfd5      AddTask_
0001:c138+     SetCustomTaskData_
0001:c1bd      printTaskData_
0001:c2d3+     AddCustomTaskData_
0001:c42a      AddCustomTaskVar_
0001:c479+     RemoveCustomTaskVar_
0001:c597      GetCustomTaskVar_
0001:c678      RemoveAllCustomTaskData_
0001:c7af      GetNumCustomTaskListData_
0001:c83f      AddCustomTaskListData_
0001:c95d      RemoveCustomTaskListData_
0001:cab2      GetCustomTaskListIdxByData_
0001:cb62      GetCustomTaskListDataByStringField_
0001:ccaf      GetCustomTaskListDataByPtrField_
0001:cdc4      GetCustomTaskListData_
0001:ce8f      GetNextTask_
0001:cfb2      FreeTask_
0001:cffb      InitTaskSystem_
Module: C:\WATCOM/lib286/win\clibl.lib(stk)
0001:d035      __STK
0001:d04c*     __STKOVERFLOW_
Module: C:\WATCOM/lib286/win\clibl.lib(istable.c)
0002:070e      __IsTable
Module: C:\WATCOM/lib286/win\clibl.lib(fstricmp.c)
0001:d069      _fstricmp_
Module: C:\WATCOM/lib286/win\clibl.lib(cmodel)
0001:d0a8      _big_code_
0001:d0a8*     CodeModelMismatch
Module: C:\WATCOM/lib286/win\clibl.lib(i4d)
0001:d0a8*     __I4D
0001:d0f7      __U4D
Module: C:\WATCOM/lib286/win\clibl.lib(i4m)
0001:d17c*     __I4M
0001:d17c      __U4M
Module: C:\WATCOM/lib286/win\clibl.lib(fstrchr.c)
0001:d194      _fstrchr_
Module: C:\WATCOM/lib286/win\clibl.lib(abs.c)
0001:d1bd      abs_
Module: C:\WATCOM/lib286/win\clibl.lib(fstrnicm.c)
0001:d1c5      _fstrnicmp_
Module: C:\WATCOM/lib286/win\clibl.lib(fmemmove.c)
0001:d219      _fmemmove_
Module: C:\WATCOM/lib286/win\clibl.lib(fmemset.c)
0001:d28a      _fmemset_
Module: C:\WATCOM/lib286/win\clibl.lib(fmemcpy.c)
0001:d2a7      _fmemcpy_
Module: C:\WATCOM/lib286/win\clibl.lib(atoi.c)
0001:d2ce      atoi_
Module: C:\WATCOM/lib286/win\clibl.lib(fopen.c)
0001:d32a+     __open_flags_
0001:d53a+     _fsopen_
0001:d5a5      fopen_
0001:d682*     freopen_
Module: C:\WATCOM/lib286/win\clibl.lib(wstart)
0000:0006*     pLocalHeap
0000:0008*     pAtomTable
0000:000a*     pStackTop
0000:000c*     pStackMin
0000:000e*     pStackBot
0002:0000*     __nullarea
0002:0874      __curbrk
0002:0876*     __psp
0002:0878      __osmajor
0002:0879*     __osminor
0002:087a      __osmode
0002:000a      __STACKLOW
0002:000c*     __STACKTOP
0002:087c*     __cbyte
0002:087e*     __child
0002:0880*     __no87
0002:087b*     __HShift
0002:0882*     __get_ovl_stack
0002:0886*     __restore_ovl_stack
0002:088a*     ___FPE_handler
0002:088e*     __LpCmdLine
0002:0892*     __LpPgmName
0001:d720      _wstart_
0001:d720*     _cstart_
0001:d801      __exit_
0001:d812      __GETDS
Module: C:\WATCOM/lib286/win\clibl.lib(strcpy.c)
0001:d814      strcpy_
Module: C:\WATCOM/lib286/win\clibl.lib(strcat.c)
0001:d862      strcat_
Module: C:\WATCOM/lib286/win\clibl.lib(xmsgwin.c)
0001:d898+     __exit_with_msg_
0001:d8f9      __fatal_runtime_error_
Module: C:\WATCOM/lib286/win\clibl.lib(comtflag.c)
0001:d916*     __set_commode_
0002:0926      __commode
Module: C:\WATCOM/lib286/win\clibl.lib(seterrno.c)
0001:d91d      __set_errno_
0001:d938*     __set_EDOM_
0001:d94f*     __set_ERANGE_
0001:d965*     __set_EINVAL_
0001:d97e      __set_doserrno_
Module: C:\WATCOM/lib286/win\clibl.lib(iob.c)
0002:0928      ___iob
0002:0a90      __fmode
0002:106e      ___OpenStreams
0002:1072      ___ClosedStreams
Module: C:\WATCOM/lib286/win\clibl.lib(tolower.c)
0001:d98e      tolower_
Module: C:\WATCOM/lib286/win\clibl.lib(open.c)
0001:dbc9*     open_
0001:dc04      sopen_
Module: C:\WATCOM/lib286/win\clibl.lib(fseek.c)
0001:dcac      fseek_
Module: C:\WATCOM/lib286/win\clibl.lib(chktty.c)
0001:de0d      __chktty_
Module: C:\WATCOM/lib286/win\clibl.lib(freefp.c)
0001:de43      __freefp_
0001:debf      __purgefp_
Module: C:\WATCOM/lib286/win\clibl.lib(allocfp.c)
0001:def8      __allocfp_
Module: C:\WATCOM/lib286/win\clibl.lib(fclose.c)
0001:e010      __doclose_
0001:e0cc      __shutdown_stream_
0001:e0e9*     fclose_
0002:1076+     ___RmTmpFileFn
Module: C:\WATCOM/lib286/win\clibl.lib(winrtns.c)
0002:0a92      __WindowsIsWindowedHandle
0002:0a96      __WindowsRemoveWindowedHandle
0002:0a9a      __WindowsNewWindow
0002:0a9e      __WindowsCloseWindow
0002:0aa2*     __WindowsSetAbout
0002:0aa6*     __WindowsSetAppTitle
0002:0aaa*     __WindowsSetConTitle
0002:0aae*     __WindowsDestroyOnClose
0002:0ab2*     __WindowsYieldControl
0002:0ab6*     __WindowsShutDown
0002:0aba*     __WindowsStdin
0002:0abe      __WindowsStdout
0002:0ac2*     __WindowsKbhit
0002:0ac6*     __WindowsGetch
0002:0aca*     __WindowsGetche
0002:0ace*     __WindowsPutch
0002:0ad2      __WindowsExitRtn
Module: C:\WATCOM/lib286/win\clibl.lib(exit.c)
0001:e139+     __null_int23_exit_
0001:e13a      exit_
0001:e173      _exit_
0002:0ad6+     ___int23_exit
0002:0ada+     ___FPE_handler_exit
Module: C:\WATCOM/lib286/win\clibl.lib(initrtns.c)
0001:e1c3      __FInitRtns
0001:e1ce+     __InitRtns
0001:e22c      __FFiniRtns
0001:e237      __FiniRtns
Module: C:\WATCOM/lib286/win\clibl.lib(dosseg)
0001:e29c      __DOSseg__
Module: C:\WATCOM/lib286/win\clibl.lib(enterdb.c)
0001:e29d      __EnterWVIDEO_
0002:0ade+     ___WD_Present
Module: C:\WATCOM/lib286/win\clibl.lib(errno.c)
0001:e2c1      __get_errno_ptr_
0001:e2c7      __get_doserrno_ptr_
0002:107a+     _errno
0002:107c+     __doserrno
Module: C:\WATCOM/lib286/win\clibl.lib(initfile.c)
0001:e2cd      __InitFiles_
Module: C:\WATCOM/lib286/win\clibl.lib(ioexit.c)
0001:e415*     fcloseall_
0001:e422      __full_io_exit_
Module: C:\WATCOM/lib286/win\clibl.lib(opendos.c)
0001:e433      _dos_open_
Module: C:\WATCOM/lib286/win\clibl.lib(iomode.c)
0001:e45b      __GetIOMode_
0001:e477      __SetIOMode_nogrow_
0002:0ae0      ___NFiles
0002:0ae2      ___init_mode
0002:0b0a      ___io_mode
Module: C:\WATCOM/lib286/win\clibl.lib(isatt.c)
0001:e491      isatty_
Module: C:\WATCOM/lib286/win\clibl.lib(dosret.c)
0001:e4d2*     _dosretax_
0001:e4e4*     _dosret0_
0001:e4f8      __set_errno_dos_
0001:e552*     __set_errno_dos_reterr_
Module: C:\WATCOM/lib286/win\clibl.lib(umaskval.c)
0002:0b22      ___umaskval
Module: C:\WATCOM/lib286/win\clibl.lib(creatdos.c)
0001:e563      _dos_creat_
0001:e589*     _dos_creatnew_
Module: C:\WATCOM/lib286/win\clibl.lib(stiomode.c)
0001:e5ac+     __grow_iomode_
0001:e667+     __shrink_iomode_
0001:e69a      __SetIOMode_
Module: C:\WATCOM/lib286/win\clibl.lib(stricmp.c)
0001:e6f3      stricmp_
Module: C:\WATCOM/lib286/win\clibl.lib(lseek.c)
0001:e731      lseek_
Module: C:\WATCOM/lib286/win\clibl.lib(flush.c)
0001:e768      __flush_
Module: C:\WATCOM/lib286/win\clibl.lib(tell.c)
0001:e8bb      tell_
Module: C:\WATCOM/lib286/win\clibl.lib(ffree.c)
0001:e8d2      free_
0001:e8dd      _ffree_
Module: C:\WATCOM/lib286/win\clibl.lib(fmalloc.c)
0001:e91b      malloc_
0001:e926      _fmalloc_
0002:0b24+     ___fheap
0002:0b26      ___fheapRover
0002:0b28      ___LargestSizeB4Rover
Module: C:\WATCOM/lib286/win\clibl.lib(__lseek.c)
0001:ea1e      __lseek_
Module: C:\WATCOM/lib286/win\clibl.lib(_clse.c)
0001:ea5b      __close_
Module: C:\WATCOM/lib286/win\clibl.lib(sgdef086)
0002:0b3c      __Start_XI
0002:0b48      __End_XI
0002:0b48      __Start_YI
0002:0b54      __End_YI
Module: C:\WATCOM/lib286/win\clibl.lib(nmalloc.c)
0001:eac2      _nmalloc_
0002:0b2a      ___nheapbeg
0002:0b2c      ___MiniHeapRover
0002:0b2e      ___LargestSizeB4MiniHeapRover
Module: C:\WATCOM/lib286/win\clibl.lib(doserror)
0001:eb86      __doserror_
Module: C:\WATCOM/lib286/win\clibl.lib(frealloc.c)
0001:eb94      realloc_
0001:eb9f+     _frealloc_
Module: C:\WATCOM/lib286/win\clibl.lib(iomodtty.c)
0001:ec74      __ChkTTYIOMode_
0001:ecb4*     __IOMode_
Module: C:\WATCOM/lib286/win\clibl.lib(fsync.c)
0001:ecca      fsync_
Module: C:\WATCOM/lib286/win\clibl.lib(qwrit.c)
0001:ecd6      __qwrite_
Module: C:\WATCOM/lib286/win\clibl.lib(mem.c)
0001:ed70      __MemAllocator
0001:ee3e      __MemFree
Module: C:\WATCOM/lib286/win\clibl.lib(nfree.c)
0001:ef9d      _nfree_
0002:1080      ___MiniHeapFreeRover
Module: C:\WATCOM/lib286/win\clibl.lib(growseg.c)
0001:f068      __GrowSeg_
Module: C:\WATCOM/lib286/win\clibl.lib(allocseg.c)
0001:f1a2      __AllocSeg_
Module: C:\WATCOM/lib286/win\clibl.lib(fmemneed.c)
0001:f27c      __fmemneed_
Module: C:\WATCOM/lib286/win\clibl.lib(nmemneed.c)
0001:f27f      __nmemneed_
Module: C:\WATCOM/lib286/win\clibl.lib(grownear.c)
0001:f39f      __ExpandDGROUP_
Module: C:\WATCOM/lib286/win\clibl.lib(fmsize.c)
0001:f3b4*     _msize_
0001:f3b4      _fmsize_
Module: C:\WATCOM/lib286/win\clibl.lib(nexpand.c)
0001:f3c6      __HeapManager_expand_
0001:f563      _nexpand_
Module: C:\WATCOM/lib286/win\clibl.lib(fexpand.c)
0001:f58f*     _expand_
0001:f59a      _fexpand_
Module: C:\WATCOM/lib286/win\clibl.lib(filedos.c)
0001:f5d6*     _dos_close_
0001:f5ea      _dos_commit_
Module: C:\WATCOM/lib286/win\clibl.lib(heapen.c)
0001:f5fe*     _heapenable_
0002:0b30      ___heap_enabled
Module: C:\WATCOM/lib286/win\clibl.lib(amblksiz.c)
0002:0b32      __amblksiz
Module: C:\WATCOM/lib286/win\clibl.lib(wallflgs.c)
0002:0b34      ___win_alloc_flags
0002:0b38      ___win_realloc_flags
Module: C:\WATCOM/lib286/win\clibl.lib(nheapmin.c)
0001:f60a*     _nheapmin_
0001:f692      _nheapshrink_
Module: C:\WATCOM/lib286/win\clibl.lib(bfree.c)
0001:f6c3      _bfree_
Module: C:\WATCOM/lib286/win\clibl.lib(bexpand.c)
0001:f6ed      _bexpand_


                        +----------------------+
                        |   Imported Symbols   |
                        +----------------------+

Symbol                              Module
======                              ======

ACCEPT                              WINSOCK
BIND                                WINSOCK
CLOSESOCKET                         WINSOCK
CONNECT                             WINSOCK
GETPEERNAME                         WINSOCK
GETSOCKNAME                         WINSOCK
GETSOCKOPT                          WINSOCK
HTONL                               WINSOCK
HTONS                               WINSOCK
INET_ADDR                           WINSOCK
INET_NTOA                           WINSOCK
IOCTLSOCKET                         WINSOCK
LISTEN                              WINSOCK
NTOHL                               WINSOCK
NTOHS                               WINSOCK
RECV                                WINSOCK
RECVFROM                            WINSOCK
SELECT                              WINSOCK
SEND                                WINSOCK
SENDTO                              WINSOCK
SETSOCKOPT                          WINSOCK
SHUTDOWN                            WINSOCK
SOCKET                              WINSOCK
GETHOSTBYADDR                       WINSOCK
GETHOSTBYNAME                       WINSOCK
GETPROTOBYNAME                      WINSOCK
GETPROTOBYNUMBER                    WINSOCK
GETSERVBYNAME                       WINSOCK
GETSERVBYPORT                       WINSOCK
GETHOSTNAME                         WINSOCK
WSAASYNCSELECT                      WINSOCK
WSAASYNCGETHOSTBYADDR               WINSOCK
WSAASYNCGETHOSTBYNAME               WINSOCK
WSAASYNCGETPROTOBYNUMBER            WINSOCK
WSAASYNCGETPROTOBYNAME              WINSOCK
WSAASYNCGETSERVBYPORT               WINSOCK
WSAASYNCGETSERVBYNAME               WINSOCK
WSACANCELASYNCREQUEST               WINSOCK
WSASETBLOCKINGHOOK                  WINSOCK
WSAUNHOOKBLOCKINGHOOK               WINSOCK
WSAGETLASTERROR                     WINSOCK
WSASETLASTERROR                     WINSOCK
WSACANCELBLOCKINGCALL               WINSOCK
WSAISBLOCKING                       WINSOCK
WSASTARTUP                          WINSOCK
WSACLEANUP                          WINSOCK
__WSAFDISSET                        WINSOCK
WEP                                 WINSOCK
GLOBALALLOC                         KERNEL
MESSAGEBOX                          USER
GLOBALLOCK                          KERNEL
GLOBALHANDLE                        KERNEL
GLOBALFREE                          KERNEL
LSTRLEN                             KERNEL
LSTRCPY                             KERNEL
LSTRCAT                             KERNEL
_LREAD                              KERNEL
_LLSEEK                             KERNEL
_LCLOSE                             KERNEL
OPENFILE                            KERNEL
SETWINDOWTEXT                       USER
LSTRCMP                             USER
_wsprintf                           USER
INVALIDATERECT                      USER
GETWINDOWTEXTLENGTH                 USER
SETFOCUS                            USER
SENDMESSAGE                         USER
WVSPRINTF                           USER
CREATEWINDOW                        USER
GETWINDOWTEXT                       USER
SHOWWINDOW                          USER
GETPARENT                           USER
CALLWINDOWPROC                      USER
SETTEXTCOLOR                        GDI
DRAWTEXT                            USER
DEFWINDOWPROC                       USER
CREATEFONT                          GDI
SELECTOBJECT                        GDI
GETSTOCKOBJECT                      GDI
FILLRECT                            USER
CREATESOLIDBRUSH                    GDI
DELETEOBJECT                        GDI
CREATEPEN                           GDI
MOVETO                              GDI
LINETO                              GDI
SETBKMODE                           GDI
GETCLIENTRECT                       USER
GETWINDOWRECT                       USER
MOVEWINDOW                          USER
BEGINPAINT                          USER
ENDPAINT                            USER
SETBKCOLOR                          GDI
MAKEPROCINSTANCE                    KERNEL
SETWINDOWLONG                       USER
CREATECOMPATIBLEDC                  GDI
CREATECOMPATIBLEBITMAP              GDI
SAVEDC                              GDI
MOVETOEX                            GDI
BITBLT                              GDI
RESTOREDC                           GDI
DELETEDC                            GDI
DESTROYWINDOW                       USER
POSTQUITMESSAGE                     USER
LOADICON                            USER
LOADCURSOR                          USER
REGISTERCLASS                       USER
UPDATEWINDOW                        USER
SETTIMER                            USER
GETMESSAGE                          USER
GETTICKCOUNT                        USER
TRANSLATEMESSAGE                    USER
DISPATCHMESSAGE                     USER
LSTRCMPI                            USER
INITTASK                            KERNEL
GETMODULEFILENAME                   KERNEL
INITAPP                             USER
WAITEVENT                           KERNEL
__AHSHIFT                           KERNEL
GLOBALREALLOC                       KERNEL
LOCALALLOC                          KERNEL
LOCALFREE                           KERNEL


                        +--------------------+
                        |   Libraries Used   |
                        +--------------------+

C:\WATCOM/lib286/win\windows.lib
C:\WATCOM/lib286/win\clibl.lib


                        +-----------------------+
                        |   Linker Statistics   |
                        +-----------------------+

Stack size:  2000 (8192.)
Memory size:  000127d9 (75737.)
Entry point address: 0001:d720
Link time: 00:02.62
